target datalayout = "e-m:e-p270:32:32-p271:32:32-p272:64:64-i64:64-i128:128-f80:128-n8:16:32:64-S128"
target triple = "x86_64-pc-linux-gnu"

%struct._lv_global_t = type { i8, i8, %struct.lv_ll_t, ptr, ptr, %struct.lv_ll_t, i8, i32, i32, ptr, %struct.lv_ll_t, ptr, %struct.lv_ll_t, ptr, ptr, i32, ptr, i8, i32, i32, ptr, i32, %struct.lv_timer_state_t, %struct.lv_anim_state_t, %struct.lv_tick_state_t, %struct._lv_draw_buf_handlers_t, %struct._lv_draw_buf_handlers_t, %struct._lv_draw_buf_handlers_t, %struct.lv_ll_t, ptr, ptr, %struct.lv_draw_global_info_t, [4 x %struct.lv_draw_sw_mask_radius_circle_dsc_t], ptr, ptr, ptr, %struct.lv_tlsf_state_t, %struct.lv_ll_t, ptr, ptr, %struct.lv_style_t, i64, ptr, i32, ptr }
%struct.lv_timer_state_t = type { %struct.lv_ll_t, i8, i8, i8, i8, i32, i8, i32, i32, i32, i32, ptr, ptr }
%struct.lv_anim_state_t = type { i8, i8, ptr, %struct.lv_ll_t }
%struct.lv_tick_state_t = type { i32, i8, ptr, ptr }
%struct._lv_draw_buf_handlers_t = type { ptr, ptr, ptr, ptr, ptr, ptr }
%struct.lv_draw_global_info_t = type { ptr, i32, i32, i32, i32, i8 }
%struct.lv_draw_sw_mask_radius_circle_dsc_t = type { ptr, ptr, ptr, ptr, i32, i32, i32 }
%struct.lv_tlsf_state_t = type { ptr, i64, i64, %struct.lv_ll_t }
%struct.lv_ll_t = type { i32, ptr, ptr }
%struct.lv_style_t = type { ptr, i32, i8 }

@lv_global = external global %struct._lv_global_t, align 8

; Function Attrs: nounwind uwtable
define zeroext i8 @lv_style_register_prop(i8 noundef zeroext %0) #0 {
  %2 = alloca i8, align 1
  %3 = alloca i8, align 1
  %4 = alloca i64, align 8
  %5 = alloca ptr, align 8
  %6 = alloca ptr, align 8
  %7 = alloca i32, align 4
  store i8 %0, ptr %3, align 1, !tbaa !13
  %8 = load ptr, ptr getelementptr inbounds nuw (%struct._lv_global_t, ptr @lv_global, i32 0, i32 9), align 8, !tbaa !14
  %9 = icmp eq ptr %8, null
  br i1 %9, label %10, label %11

10:                                               ; preds = %1
  store i32 0, ptr getelementptr inbounds nuw (%struct._lv_global_t, ptr @lv_global, i32 0, i32 7), align 4, !tbaa !24
  store i32 140, ptr getelementptr inbounds nuw (%struct._lv_global_t, ptr @lv_global, i32 0, i32 8), align 8, !tbaa !25
  br label %11

11:                                               ; preds = %10, %1
  call void @llvm.lifetime.start.p0(i64 8, ptr %4) #6
  %12 = load i32, ptr getelementptr inbounds nuw (%struct._lv_global_t, ptr @lv_global, i32 0, i32 8), align 8, !tbaa !25
  %13 = add i32 %12, 1
  %14 = sub i32 %13, 140
  %15 = zext i32 %14 to i64
  store i64 %15, ptr %4, align 8, !tbaa !7
  %16 = load i32, ptr getelementptr inbounds nuw (%struct._lv_global_t, ptr @lv_global, i32 0, i32 7), align 4, !tbaa !24
  %17 = zext i32 %16 to i64
  %18 = load i64, ptr %4, align 8, !tbaa !7
  %19 = icmp ult i64 %17, %18
  br i1 %19, label %20, label %54

20:                                               ; preds = %11
  %21 = load i64, ptr %4, align 8, !tbaa !7
  %22 = add i64 %21, 31
  %23 = and i64 %22, -32
  store i64 %23, ptr %4, align 8, !tbaa !7
  br label %24

24:                                               ; preds = %20
  %25 = load i64, ptr %4, align 8, !tbaa !7
  %26 = icmp ugt i64 %25, 0
  br i1 %26, label %33, label %27

27:                                               ; preds = %24
  br label %28

28:                                               ; preds = %27
  br label %29

29:                                               ; preds = %28
  br label %30

30:                                               ; preds = %29
  br label %31

31:                                               ; preds = %32, %30
  br label %32

32:                                               ; preds = %31
  br label %31

33:                                               ; preds = %24
  br label %34

34:                                               ; preds = %33
  br label %35

35:                                               ; preds = %34
  call void @llvm.lifetime.start.p0(i64 8, ptr %5) #6
  %36 = load ptr, ptr getelementptr inbounds nuw (%struct._lv_global_t, ptr @lv_global, i32 0, i32 9), align 8, !tbaa !14
  store ptr %36, ptr %5, align 8, !tbaa !3
  call void @llvm.lifetime.start.p0(i64 8, ptr %6) #6
  %37 = load ptr, ptr %5, align 8, !tbaa !3
  %38 = load i64, ptr %4, align 8, !tbaa !7
  %39 = mul i64 %38, 1
  %40 = call ptr @lv_realloc(ptr noundef %37, i64 noundef %39)
  store ptr %40, ptr %6, align 8, !tbaa !3
  %41 = load ptr, ptr %6, align 8, !tbaa !3
  %42 = icmp eq ptr %41, null
  br i1 %42, label %43, label %47

43:                                               ; preds = %35
  br label %44

44:                                               ; preds = %43
  br label %45

45:                                               ; preds = %44
  br label %46

46:                                               ; preds = %45
  store i8 0, ptr %2, align 1
  store i32 1, ptr %7, align 4
  br label %51

47:                                               ; preds = %35
  %48 = load ptr, ptr %6, align 8, !tbaa !3
  store ptr %48, ptr getelementptr inbounds nuw (%struct._lv_global_t, ptr @lv_global, i32 0, i32 9), align 8, !tbaa !14
  %49 = load i64, ptr %4, align 8, !tbaa !7
  %50 = trunc i64 %49 to i32
  store i32 %50, ptr getelementptr inbounds nuw (%struct._lv_global_t, ptr @lv_global, i32 0, i32 7), align 4, !tbaa !24
  store i32 0, ptr %7, align 4
  br label %51

51:                                               ; preds = %47, %46
  call void @llvm.lifetime.end.p0(i64 8, ptr %6) #6
  call void @llvm.lifetime.end.p0(i64 8, ptr %5) #6
  %52 = load i32, ptr %7, align 4
  switch i32 %52, label %77 [
    i32 0, label %53
  ]

53:                                               ; preds = %51
  br label %54

54:                                               ; preds = %53, %11
  %55 = load i32, ptr getelementptr inbounds nuw (%struct._lv_global_t, ptr @lv_global, i32 0, i32 8), align 8, !tbaa !25
  %56 = add i32 %55, 1
  store i32 %56, ptr getelementptr inbounds nuw (%struct._lv_global_t, ptr @lv_global, i32 0, i32 8), align 8, !tbaa !25
  br label %57

57:                                               ; preds = %54
  %58 = load ptr, ptr getelementptr inbounds nuw (%struct._lv_global_t, ptr @lv_global, i32 0, i32 9), align 8, !tbaa !14
  %59 = icmp ne ptr %58, null
  br i1 %59, label %66, label %60

60:                                               ; preds = %57
  br label %61

61:                                               ; preds = %60
  br label %62

62:                                               ; preds = %61
  br label %63

63:                                               ; preds = %62
  br label %64

64:                                               ; preds = %65, %63
  br label %65

65:                                               ; preds = %64
  br label %64

66:                                               ; preds = %57
  br label %67

67:                                               ; preds = %66
  br label %68

68:                                               ; preds = %67
  %69 = load i8, ptr %3, align 1, !tbaa !13
  %70 = load ptr, ptr getelementptr inbounds nuw (%struct._lv_global_t, ptr @lv_global, i32 0, i32 9), align 8, !tbaa !14
  %71 = load i32, ptr getelementptr inbounds nuw (%struct._lv_global_t, ptr @lv_global, i32 0, i32 8), align 8, !tbaa !25
  %72 = sub i32 %71, 141
  %73 = zext i32 %72 to i64
  %74 = getelementptr inbounds nuw i8, ptr %70, i64 %73
  store i8 %69, ptr %74, align 1, !tbaa !13
  %75 = load i32, ptr getelementptr inbounds nuw (%struct._lv_global_t, ptr @lv_global, i32 0, i32 8), align 8, !tbaa !25
  %76 = trunc i32 %75 to i8
  store i8 %76, ptr %2, align 1
  store i32 1, ptr %7, align 4
  br label %77

77:                                               ; preds = %68, %51
  call void @llvm.lifetime.end.p0(i64 8, ptr %4) #6
  %78 = load i8, ptr %2, align 1
  ret i8 %78
}